; Function Attrs: nounwind uwtable
define internal ptr @blake2_mac_new(ptr readnone captures(none) %0) #0 {
  %2 = tail call i32 @ossl_prov_is_running() #6
  %.not = icmp eq i32 %2, 0
  br i1 %.not, label %7, label %3

3:                                                ; preds = %1
  %4 = tail call noalias ptr @CRYPTO_zalloc(i64 noundef 192, ptr noundef nonnull @.str, i32 noundef 49) #6
  %.not5 = icmp eq ptr %4, null
  br i1 %.not5, label %7, label %5

5:                                                ; preds = %3
  %6 = getelementptr inbounds nuw i8, ptr %4, i64 128
  tail call void @ossl_blake2s_param_init(ptr noundef nonnull %6) #6
  br label %7

7:                                                ; preds = %3, %5, %1
  %.0 = phi ptr [ null, %1 ], [ %4, %5 ], [ null, %3 ]
  ret ptr %.0
}